; Function Attrs: nounwind uwtable
define dso_local noundef i32 @jq_yylex_destroy(ptr noundef %0) local_unnamed_addr #0 {
  %2 = getelementptr inbounds nuw i8, ptr %0, i64 24
  %3 = getelementptr inbounds nuw i8, ptr %0, i64 40
  %4 = load ptr, ptr %3, align 8, !tbaa !22
  %.not26 = icmp eq ptr %4, null
  br i1 %.not26, label %.critedge, label %.lr.ph.preheader

.lr.ph.preheader:                                 ; preds = %1
  %.pre = load i64, ptr %2, align 8, !tbaa !23
  %.phi.trans.insert = getelementptr inbounds nuw ptr, ptr %4, i64 %.pre
  %.pre31 = load ptr, ptr %.phi.trans.insert, align 8, !tbaa !24
  %5 = icmp eq ptr %.pre31, null
  br i1 %5, label %.critedge, label %.thread.i

.thread.i:                                        ; preds = %.lr.ph.preheader
  %6 = getelementptr inbounds nuw ptr, ptr %4, i64 %.pre
  store ptr null, ptr %6, align 8, !tbaa !24
  %7 = getelementptr inbounds nuw i8, ptr %.pre31, i64 32
  %8 = load i32, ptr %7, align 8, !tbaa !30
  %.not15.i = icmp eq i32 %8, 0
  br i1 %.not15.i, label %jq_yypop_buffer_state.exit, label %9

9:                                                ; preds = %.thread.i
  %10 = getelementptr inbounds nuw i8, ptr %.pre31, i64 8
  %11 = load ptr, ptr %10, align 8, !tbaa !29
  tail call void @jv_mem_free(ptr noundef %11) #17
  br label %jq_yypop_buffer_state.exit

jq_yypop_buffer_state.exit:                       ; preds = %.thread.i, %9
  tail call void @jv_mem_free(ptr noundef nonnull %.pre31) #17
  %12 = load ptr, ptr %3, align 8, !tbaa !22
  %13 = load i64, ptr %2, align 8, !tbaa !23
  %14 = getelementptr inbounds nuw ptr, ptr %12, i64 %13
  store ptr null, ptr %14, align 8, !tbaa !24
  br label %.critedge

.critedge:                                        ; preds = %.lr.ph.preheader, %jq_yypop_buffer_state.exit, %1
  %.lcssa = phi ptr [ null, %1 ], [ %12, %jq_yypop_buffer_state.exit ], [ %4, %.lr.ph.preheader ]
  tail call void @jv_mem_free(ptr noundef %.lcssa) #17
  store ptr null, ptr %3, align 8, !tbaa !22
  %15 = getelementptr inbounds nuw i8, ptr %0, i64 96
  %16 = load ptr, ptr %15, align 8, !tbaa !65
  tail call void @jv_mem_free(ptr noundef %16) #17
  %17 = getelementptr inbounds nuw i8, ptr %0, i64 64
  %18 = getelementptr inbounds nuw i8, ptr %0, i64 84
  store i32 0, ptr %18, align 4, !tbaa !63
  %19 = getelementptr inbounds nuw i8, ptr %0, i64 88
  store i32 0, ptr %19, align 8, !tbaa !64
  store ptr null, ptr %15, align 8, !tbaa !65
  %20 = getelementptr inbounds nuw i8, ptr %0, i64 8
  tail call void @llvm.memset.p0.i64(ptr noundef nonnull align 8 dereferenceable(40) %20, i8 0, i64 40, i1 false)
  tail call void @llvm.memset.p0.i64(ptr noundef nonnull align 8 dereferenceable(16) %17, i8 0, i64 16, i1 false)
  tail call void @jv_mem_free(ptr noundef nonnull %0) #17
  ret i32 0
}